(dp0
S'path2'
p1
(lp2
(lp3
(lp4
I2
aI3
aa(lp5
I8
aI4
aa(lp6
I1
aaa(lp7
(lp8
I0
aI1
aa(lp9
I5
aa(lp10
I9
aaa(lp11
(lp12
I8
aI2
aI4
aa(lp13
I0
aa(lp14
I1
aI6
aaa(lp15
(lp16
I0
aI4
aa(lp17
I9
aa(lp18
I4
aaa(lp19
(lp20
I1
aI2
aI7
aa(lp21
I6
aa(lp22
I1
aaa(lp23
(lp24
I0
aI9
aI2
aa(lp25
I2
aI6
aa(lp26
I8
aI2
aI7
aaa(lp27
(lp28
I0
aI1
aI2
aa(lp29
I0
aI5
aI7
aa(lp30
I1
aaa(lp31
(lp32
I0
aI2
aI3
aa(lp33
I0
aI8
aI4
aa(lp34
I1
aI2
aI3
aaa(lp35
(lp36
I0
aI2
aI4
aa(lp37
I1
aI3
aI5
aa(lp38
I6
aaa(lp39
(lp40
I0
aI9
aa(lp41
I4
aa(lp42
I0
aI2
aI7
aaa(lp43
(lp44
I3
aa(lp45
I9
aI3
aI5
aa(lp46
I2
aI4
aaa(lp47
(lp48
I0
aa(lp49
I5
aa(lp50
I3
aI6
aaa(lp51
(lp52
I8
aI7
aa(lp53
I4
aI5
aa(lp54
I1
aI3
aI7
aaa(lp55
(lp56
I8
aI9
aI7
aa(lp57
I6
aa(lp58
I6
aaa(lp59
(lp60
I0
aI3
aa(lp61
I8
aI2
aI5
aa(lp62
I5
aaa(lp63
(lp64
I0
aI3
aa(lp65
I3
aa(lp66
I9
aI3
aaa(lp67
(lp68
I8
aI3
aa(lp69
I8
aI3
aI4
aa(lp70
I9
aI4
aaa(lp71
(lp72
I7
aa(lp73
I1
aI3
aI5
aa(lp74
I2
aI5
aaa(lp75
(lp76
I0
aI4
aI6
aa(lp77
I8
aa(lp78
I1
aI3
aI6
aaa(lp79
(lp80
I4
aI5
aI7
aa(lp81
I2
aa(lp82
I4
aaa(lp83
(lp84
I2
aa(lp85
I1
aa(lp86
I8
aI1
aaa(lp87
(lp88
I6
aa(lp89
I2
aI3
aI6
aa(lp90
I7
aaa(lp91
(lp92
I2
aI6
aI7
aa(lp93
I0
aI2
aI5
aa(lp94
I5
aaa(lp95
(lp96
I0
aI1
aI4
aa(lp97
I3
aI6
aa(lp98
I5
aaa(lp99
(lp100
I4
aI5
aa(lp101
I8
aI2
aa(lp102
I8
aI2
aaa(lp103
(lp104
I6
aa(lp105
I0
aa(lp106
I5
aaa(lp107
(lp108
I5
aa(lp109
I5
aa(lp110
I3
aI5
aaa(lp111
(lp112
I2
aI4
aa(lp113
I8
aI5
aI6
aa(lp114
I9
aI4
aI7
aaa(lp115
(lp116
I0
aa(lp117
I9
aI3
aa(lp118
I4
aaa(lp119
(lp120
I8
aI1
aI6
aa(lp121
I0
aI3
aI4
aa(lp122
I9
aaa(lp123
(lp124
I6
aa(lp125
I3
aI7
aa(lp126
I8
aI4
aI6
aaa(lp127
(lp128
I9
aI3
aI6
aa(lp129
I8
aI5
aI7
aa(lp130
I2
aI5
aaa(lp131
(lp132
I5
aI6
aI7
aa(lp133
I2
aI3
aI6
aa(lp134
I1
aI5
aaa(lp135
(lp136
I1
aI3
aI5
aa(lp137
I5
aa(lp138
I1
aaa(lp139
(lp140
I8
aI9
aI3
aa(lp141
I3
aI6
aa(lp142
I1
aI3
aI5
aaa(lp143
(lp144
I9
aI6
aa(lp145
I1
aI2
aa(lp146
I8
aI9
aI3
aaa(lp147
(lp148
I9
aa(lp149
I1
aI7
aa(lp150
I4
aI7
aaa(lp151
(lp152
I3
aI6
aa(lp153
I8
aI2
aI3
aa(lp154
I0
aI2
aaa(lp155
(lp156
I2
aI3
aI4
aa(lp157
I4
aa(lp158
I0
aI7
aaa(lp159
(lp160
I2
aa(lp161
I8
aI1
aa(lp162
I0
aI3
aaa(lp163
(lp164
I2
aI6
aa(lp165
I1
aI5
aI7
aa(lp166
I6
aaa(lp167
(lp168
I8
aI1
aa(lp169
I6
aa(lp170
I2
aI3
aaa(lp171
(lp172
I0
aI3
aI7
aa(lp173
I8
aI9
aI3
aa(lp174
I0
aI8
aI3
aaa(lp175
(lp176
I9
aI4
aa(lp177
I1
aI6
aa(lp178
I5
aaa(lp179
(lp180
I8
aI4
aa(lp181
I0
aI1
aa(lp182
I7
aaa(lp183
(lp184
I2
aI6
aI7
aa(lp185
I9
aI2
aa(lp186
I8
aI1
aaa(lp187
(lp188
I5
aI6
aa(lp189
I0
aI1
aI3
aa(lp190
I5
aI6
aaa(lp191
(lp192
I0
aa(lp193
I0
aI1
aI6
aa(lp194
I9
aaa(lp195
(lp196
I0
aI3
aI4
aa(lp197
I8
aI3
aa(lp198
I8
aI4
aaa(lp199
(lp200
I3
aa(lp201
I3
aI6
aa(lp202
I1
aI5
aaa(lp203
(lp204
I0
aI4
aI5
aa(lp205
I0
aa(lp206
I9
aI2
aI6
aaa(lp207
(lp208
I8
aI5
aa(lp209
I3
aI7
aa(lp210
I3
aI7
aaa(lp211
(lp212
I0
aa(lp213
I8
aI3
aI5
aa(lp214
I5
aaa(lp215
(lp216
I1
aI4
aa(lp217
I8
aa(lp218
I0
aI9
aI3
aaa(lp219
(lp220
I4
aa(lp221
I5
aa(lp222
I9
aI2
aI3
aaa(lp223
(lp224
I4
aa(lp225
I2
aI3
aI5
aa(lp226
I9
aI3
aaa(lp227
(lp228
I9
aa(lp229
I9
aI3
aa(lp230
I0
aI7
aaa(lp231
(lp232
I0
aa(lp233
I3
aI4
aa(lp234
I1
aI4
aI6
aaa(lp235
(lp236
I9
aI3
aI4
aa(lp237
I2
aI5
aI6
aa(lp238
I1
aaa(lp239
(lp240
I1
aI4
aI6
aa(lp241
I8
aI1
aI0
aa(lp242
I0
aaa(lp243
(lp244
I7
aa(lp245
I3
aI6
aa(lp246
I0
aI2
aaa(lp247
(lp248
I2
aI4
aa(lp249
I0
aI8
aI5
aa(lp250
I8
aI1
aaa(lp251
(lp252
I1
aI3
aa(lp253
I4
aa(lp254
I8
aI2
aaa(lp255
(lp256
I0
aI6
aa(lp257
I6
aI7
aa(lp258
I3
aaa(lp259
(lp260
I1
aI2
aa(lp261
I7
aa(lp262
I0
aaa(lp263
(lp264
I8
aI2
aI6
aa(lp265
I0
aI5
aa(lp266
I5
aaa(lp267
(lp268
I9
aI4
aI1
aa(lp269
I9
aI2
aI5
aa(lp270
I1
aI2
aI5
aaa(lp271
(lp272
I8
aI6
aa(lp273
I0
aI8
aI6
aa(lp274
I0
aI3
aI5
aaa(lp275
(lp276
I4
aa(lp277
I8
aI1
aI2
aa(lp278
I9
aaa(lp279
(lp280
I0
aI2
aa(lp281
I3
aI6
aa(lp282
I8
aI6
aaa(lp283
(lp284
I9
aI3
aa(lp285
I2
aI3
aI5
aa(lp286
I1
aI6
aaa(lp287
(lp288
I0
aI1
aI6
aa(lp289
I0
aI8
aI3
aa(lp290
I8
aI9
aI4
aaa(lp291
(lp292
I6
aa(lp293
I2
aa(lp294
I0
aI2
aaa(lp295
(lp296
I4
aI6
aa(lp297
I9
aI6
aa(lp298
I8
aI2
aI7
aaa(lp299
(lp300
I1
aI3
aI5
aa(lp301
I8
aI1
aI3
aa(lp302
I1
aI6
aI9
aaa(lp303
(lp304
I0
aI9
aI5
aa(lp305
I1
aI5
aI9
aa(lp306
I0
aI5
aaa(lp307
(lp308
I1
aI4
aI7
aa(lp309
I1
aI4
aI6
aa(lp310
I3
aI5
aI7
aaa(lp311
(lp312
I0
aI6
aa(lp313
I9
aa(lp314
I2
aI4
aaa(lp315
(lp316
I1
aI2
aI3
aa(lp317
I8
aI0
aI3
aa(lp318
I1
aI2
aI7
aaa(lp319
(lp320
I3
aa(lp321
I0
aI1
aI7
aa(lp322
I1
aI2
aaa(lp323
(lp324
I8
aI6
aa(lp325
I2
aI3
aI7
aa(lp326
I0
aI4
aaa(lp327
(lp328
I1
aI3
aa(lp329
I8
aI2
aa(lp330
I9
aI7
aaa(lp331
(lp332
I4
aI5
aI6
aa(lp333
I0
aI3
aa(lp334
I0
aaasS'eval2'
p335
(lp336
I0
aI0
aI0
aI0
aI0
aI0
aI0
aI0
aI0
aI0
aI0
aI0
aI0
aI0
aI0
aI0
aI0
aI0
aI0
aI0
aI0
aI0
aI0
aI0
aI0
aI0
aI0
aI0
aI0
aI0
aI0
aI0
aI0
aI0
aI0
aI0
aI0
aI0
aI0
aI0
aI0
aI0
aI0
aI0
aI0
aI0
aI0
aI0
aI0
aI0
aI0
aI0
aI0
aI0
aI0
aI0
aI0
aI0
aI0
aI0
aI0
aI0
aI0
aI0
aI0
aI0
aI0
aI0
aI0
aI0
aI0
aI0
aI0
aI0
aI0
aI0
aI0
aI0
aI0
aI0
aI0
aI0
aI0
asS'eval1'
p337
(lp338
I0
aI0
aI0
aI0
aI0
aI0
aI0
aI0
aI0
aI0
aI0
aI0
aI0
aI0
aI0
aI0
aI0
aI0
aI0
aI0
aI0
aI0
aI0
aI0
aI0
aI0
aI0
aI0
aI0
aI0
aI0
aI0
aI0
aI0
aI0
aI0
aI0
aI0
aI0
aI0
aI0
aI0
aI0
aI0
aI0
aI0
aI0
aI0
aI0
aI0
aI0
aI0
aI0
aI0
aI0
aI0
aI0
aI0
aI0
aI0
aI0
aI0
aI0
aI0
aI0
aI0
aI0
aI0
aI0
aI0
aI0
aI0
aI0
aI0
aI0
aI0
aI0
aI0
aI0
aI0
aI0
aI0
aI0
asS'path1'
p339
(lp340
(lp341
(lp342
I3
aI6
aa(lp343
I8
aI2
aa(lp344
I0
aI1
aaa(lp345
(lp346
I8
aa(lp347
I2
aI3
aI4
aa(lp348
I6
aaa(lp349
(lp350
I4
aI5
aa(lp351
I9
aa(lp352
I9
aI2
aI3
aaa(lp353
(lp354
I0
aI9
aa(lp355
I8
aa(lp356
I0
aI2
aI6
aaa(lp357
(lp358
I1
aI2
aa(lp359
I3
aI5
aI7
aa(lp360
I9
aI3
aI7
aaa(lp361
(lp362
I3
aI4
aI7
aa(lp363
I4
aa(lp364
I9
aaa(lp365
(lp366
I0
aI8
aI7
aa(lp367
I8
aI2
aI5
aa(lp368
I8
aaa(lp369
(lp370
I1
aI4
aa(lp371
I1
aI6
aI7
aa(lp372
I9
aI6
aI7
aaa(lp373
(lp374
I9
aI6
aa(lp375
I9
aI2
aI4
aa(lp376
I0
aI9
aI3
aaa(lp377
(lp378
I2
aI4
aI7
aa(lp379
I8
aa(lp380
I1
aI9
aaa(lp381
(lp382
I9
aI2
aa(lp383
I8
aI3
aI5
aa(lp384
I6
aaa(lp385
(lp386
I2
aI7
aa(lp387
I9
aI5
aI7
aa(lp388
I9
aI5
aI1
aaa(lp389
(lp390
I1
aI3
aa(lp391
I0
aI8
aI3
aa(lp392
I8
aI2
aaa(lp393
(lp394
I0
aI1
aI4
aa(lp395
I0
aI9
aI4
aa(lp396
I4
aaa(lp397
(lp398
I8
aI4
aI6
aa(lp399
I8
aI4
aI7
aa(lp400
I1
aI2
aI9
aaa(lp401
(lp402
I9
aI3
aI1
aa(lp403
I2
aa(lp404
I1
aI2
aI5
aaa(lp405
(lp406
I7
aa(lp407
I3
aI4
aI6
aa(lp408
I2
aaa(lp409
(lp410
I0
aI8
aI5
aa(lp411
I4
aI5
aI7
aa(lp412
I3
aI4
aaa(lp413
(lp414
I8
aI4
aa(lp415
I4
aI6
aa(lp416
I0
aaa(lp417
(lp418
I8
aI2
aI6
aa(lp419
I4
aI5
aa(lp420
I0
aI3
aI5
aaa(lp421
(lp422
I0
aI2
aI7
aa(lp423
I0
aI9
aI6
aa(lp424
I9
aI2
aaa(lp425
(lp426
I2
aa(lp427
I6
aa(lp428
I3
aI4
aaa(lp429
(lp430
I8
aI2
aI4
aa(lp431
I2
aa(lp432
I4
aaa(lp433
(lp434
I1
aI5
aa(lp435
I9
aI3
aI7
aa(lp436
I0
aaa(lp437
(lp438
I0
aI9
aI4
aa(lp439
I0
aI8
aa(lp440
I5
aI7
aaa(lp441
(lp442
I9
aI5
aa(lp443
I0
aI1
aI6
aa(lp444
I0
aaa(lp445
(lp446
I3
aI4
aI5
aa(lp447
I9
aI6
aI7
aa(lp448
I1
aaa(lp449
(lp450
I9
aI5
aa(lp451
I8
aI1
aI7
aa(lp452
I6
aaa(lp453
(lp454
I1
aI3
aa(lp455
I8
aI1
aI2
aa(lp456
I4
aaa(lp457
(lp458
I9
aI3
aa(lp459
I0
aI6
aa(lp460
I2
aaa(lp461
(lp462
I1
aI2
aI5
aa(lp463
I3
aa(lp464
I3
aI6
aaa(lp465
(lp466
I1
aI5
aI7
aa(lp467
I0
aI1
aa(lp468
I0
aI8
aI7
aaa(lp469
(lp470
I8
aI6
aI7
aa(lp471
I8
aI7
aa(lp472
I9
aI2
aI1
aaa(lp473
(lp474
I1
aI4
aI6
aa(lp475
I0
aa(lp476
I2
aI4
aI5
aaa(lp477
(lp478
I1
aI2
aI4
aa(lp479
I8
aI4
aa(lp480
I0
aI6
aaa(lp481
(lp482
I0
aI2
aa(lp483
I9
aI4
aI5
aa(lp484
I8
aI6
aaa(lp485
(lp486
I1
aI3
aa(lp487
I0
aa(lp488
I0
aI3
aI7
aaa(lp489
(lp490
I2
aI6
aa(lp491
I1
aI7
aa(lp492
I8
aI1
aI2
aaa(lp493
(lp494
I9
aa(lp495
I0
aI1
aa(lp496
I7
aaa(lp497
(lp498
I0
aI7
aa(lp499
I0
aI8
aa(lp500
I8
aI1
aI4
aaa(lp501
(lp502
I9
aI6
aI1
aa(lp503
I1
aa(lp504
I8
aI1
aI9
aaa(lp505
(lp506
I9
aa(lp507
I1
aI9
aI7
aa(lp508
I1
aaa(lp509
(lp510
I3
aI6
aI7
aa(lp511
I4
aI6
aa(lp512
I8
aI4
aI7
aaa(lp513
(lp514
I0
aI8
aI4
aa(lp515
I0
aI7
aa(lp516
I0
aI9
aaa(lp517
(lp518
I2
aI3
aI6
aa(lp519
I1
aI4
aI6
aa(lp520
I1
aI6
aaa(lp521
(lp522
I4
aa(lp523
I2
aI3
aI4
aa(lp524
I8
aI3
aaa(lp525
(lp526
I9
aI3
aa(lp527
I9
aI2
aI6
aa(lp528
I8
aI3
aaa(lp529
(lp530
I9
aI4
aI7
aa(lp531
I0
aI9
aI2
aa(lp532
I7
aaa(lp533
(lp534
I8
aI9
aI0
aa(lp535
I8
aa(lp536
I8
aI1
aI2
aaa(lp537
(lp538
I0
aI5
aa(lp539
I8
aI5
aI7
aa(lp540
I7
aaa(lp541
(lp542
I2
aI6
aI7
aa(lp543
I6
aI7
aa(lp544
I2
aI3
aI5
aaa(lp545
(lp546
I4
aI7
aa(lp547
I1
aI2
aI5
aa(lp548
I0
aI9
aI2
aaa(lp549
(lp550
I1
aI9
aa(lp551
I0
aI2
aI5
aa(lp552
I5
aaa(lp553
(lp554
I2
aa(lp555
I1
aI7
aa(lp556
I9
aI2
aI5
aaa(lp557
(lp558
I0
aI3
aI5
aa(lp559
I4
aI6
aI7
aa(lp560
I8
aI0
aI6
aaa(lp561
(lp562
I6
aa(lp563
I0
aI1
aI7
aa(lp564
I8
aI5
aI7
aaa(lp565
(lp566
I9
aa(lp567
I4
aI7
aa(lp568
I2
aI4
aaa(lp569
(lp570
I3
aI6
aa(lp571
I2
aa(lp572
I0
aI1
aaa(lp573
(lp574
I9
aI7
aa(lp575
I2
aI3
aI6
aa(lp576
I3
aI5
aaa(lp577
(lp578
I2
aa(lp579
I8
aa(lp580
I2
aI3
aaa(lp581
(lp582
I9
aI3
aI4
aa(lp583
I4
aI5
aa(lp584
I0
aI3
aI7
aaa(lp585
(lp586
I4
aa(lp587
I9
aI7
aa(lp588
I0
aI6
aI7
aaa(lp589
(lp590
I6
aI7
aa(lp591
I1
aI3
aa(lp592
I4
aaa(lp593
(lp594
I7
aa(lp595
I1
aI5
aa(lp596
I8
aI6
aaa(lp597
(lp598
I8
aI9
aI2
aa(lp599
I4
aI5
aI7
aa(lp600
I9
aaa(lp601
(lp602
I1
aI2
aI4
aa(lp603
I0
aI3
aI7
aa(lp604
I3
aI4
aaa(lp605
(lp606
I9
aI3
aI6
aa(lp607
I2
aI3
aI4
aa(lp608
I8
aI9
aaa(lp609
(lp610
I9
aI2
aI5
aa(lp611
I1
aI3
aa(lp612
I1
aI7
aaa(lp613
(lp614
I8
aI1
aI3
aa(lp615
I0
aI8
aI9
aa(lp616
I9
aI1
aaa(lp617
(lp618
I3
aI4
aa(lp619
I1
aI2
aa(lp620
I3
aI4
aI6
aaa(lp621
(lp622
I2
aI4
aI6
aa(lp623
I1
aI6
aI7
aa(lp624
I4
aI5
aaa(lp625
(lp626
I0
aI8
aI5
aa(lp627
I5
aI7
aa(lp628
I1
aaa(lp629
(lp630
I9
aI7
aa(lp631
I3
aI6
aa(lp632
I6
aaa(lp633
(lp634
I8
aI1
aI6
aa(lp635
I6
aa(lp636
I0
aI9
aI7
aaa(lp637
(lp638
I1
aI7
aa(lp639
I4
aa(lp640
I3
aI7
aaa(lp641
(lp642
I1
aI7
aa(lp643
I0
aI1
aa(lp644
I1
aI2
aaa(lp645
(lp646
I2
aI3
aI6
aa(lp647
I2
aI3
aI4
aa(lp648
I9
aI2
aI5
aaa(lp649
(lp650
I0
aI6
aI7
aa(lp651
I0
aa(lp652
I9
aI3
aaa(lp653
(lp654
I0
aI9
aI8
aa(lp655
I2
aI5
aa(lp656
I5
aI6
aaa(lp657
(lp658
I8
aI0
aI3
aa(lp659
I6
aa(lp660
I9
aI4
aI5
aaa(lp661
(lp662
I1
aI4
aa(lp663
I2
aI6
aa(lp664
I0
aaa(lp665
(lp666
I4
aI5
aI7
aa(lp667
I8
aI9
aI1
aa(lp668
I0
aI8
aI7
aaa(lp669
(lp670
I2
aa(lp671
I9
aI5
aa(lp672
I1
aaasS'gen2'
p673
(lp674
I96
aI117
aI130
aI56
aI87
aI136
aI83
aI78
aI120
aI104
aI115
aI115
aI100
aI118
aI59
aI72
aI156
aI97
aI103
aI92
aI122
aI89
aI131
aI138
aI113
aI86
aI97
aI111
aI111
aI80
aI95
aI128
aI101
aI102
aI105
aI118
aI126
aI125
aI103
aI72
aI159
aI99
aI135
aI121
aI123
aI151
aI82
aI125
aI66
aI86
aI101
aI112
aI98
aI134
aI72
aI113
aI131
aI79
aI58
aI124
aI67
aI73
aI48
aI106
aI80
aI112
aI80
aI101
aI145
aI65
aI77
aI112
aI77
aI58
aI100
aI113
aI116
aI64
aI103
aI142
aI97
aI73
aI72
asS'gen1'
p675
(lp676
I199
aI196
aI192
aI271
aI344
aI221
aI182
aI149
aI245
aI271
aI184
aI169
aI256
aI215
aI311
aI207
aI205
aI328
aI247
aI253
aI170
aI263
aI393
aI233
aI123
aI188
aI164
aI175
aI182
aI333
aI234
aI180
aI257
aI185
aI175
aI300
aI218
aI198
aI208
aI176
aI162
aI132
aI265
aI285
aI258
aI198
aI307
aI166
aI250
aI210
aI218
aI234
aI259
aI283
aI237
aI234
aI185
aI296
aI430
aI211
aI293
aI288
aI198
aI249
aI190
aI297
aI179
aI246
aI178
aI298
aI136
aI123
aI168
aI196
aI311
aI270
aI334
aI252
aI306
aI243
aI164
aI135
aI229
asS'avg_training2'
p677
(lp678
cnumpy.core.multiarray
scalar
p679
(cnumpy
dtype
p680
(S'i8'
p681
I0
I1
tp682
Rp683
(I3
S'<'
p684
NNNI-1
I-1
I0
tp685
bS'\xae\x00\x00\x00\x00\x00\x00\x00'
p686
tp687
Rp688
ag679
(g683
S'H\x00\x00\x00\x00\x00\x00\x00'
p689
tp690
Rp691
ag679
(g683
S's\x00\x00\x00\x00\x00\x00\x00'
p692
tp693
Rp694
ag679
(g683
S'c\x00\x00\x00\x00\x00\x00\x00'
p695
tp696
Rp697
ag679
(g683
S'\xce\x00\x00\x00\x00\x00\x00\x00'
p698
tp699
Rp700
ag679
(g683
S'W\x00\x00\x00\x00\x00\x00\x00'
p701
tp702
Rp703
ag679
(g683
S'm\x00\x00\x00\x00\x00\x00\x00'
p704
tp705
Rp706
ag679
(g683
S'9\x00\x00\x00\x00\x00\x00\x00'
p707
tp708
Rp709
ag679
(g683
S'i\x00\x00\x00\x00\x00\x00\x00'
p710
tp711
Rp712
ag679
(g683
S'B\x00\x00\x00\x00\x00\x00\x00'
p713
tp714
Rp715
ag679
(g683
S'\x81\x00\x00\x00\x00\x00\x00\x00'
p716
tp717
Rp718
ag679
(g683
S'\x89\x00\x00\x00\x00\x00\x00\x00'
p719
tp720
Rp721
ag679
(g683
S'H\x00\x00\x00\x00\x00\x00\x00'
p722
tp723
Rp724
ag679
(g683
S'B\x00\x00\x00\x00\x00\x00\x00'
p725
tp726
Rp727
ag679
(g683
S'j\x00\x00\x00\x00\x00\x00\x00'
p728
tp729
Rp730
ag679
(g683
S'O\x00\x00\x00\x00\x00\x00\x00'
p731
tp732
Rp733
ag679
(g683
S'\xb0\x00\x00\x00\x00\x00\x00\x00'
p734
tp735
Rp736
ag679
(g683
S'v\x00\x00\x00\x00\x00\x00\x00'
p737
tp738
Rp739
ag679
(g683
S'v\x00\x00\x00\x00\x00\x00\x00'
p740
tp741
Rp742
ag679
(g683
S'=\x00\x00\x00\x00\x00\x00\x00'
p743
tp744
Rp745
ag679
(g683
S's\x00\x00\x00\x00\x00\x00\x00'
p746
tp747
Rp748
ag679
(g683
S'i\x00\x00\x00\x00\x00\x00\x00'
p749
tp750
Rp751
ag679
(g683
S'\xf7\x00\x00\x00\x00\x00\x00\x00'
p752
tp753
Rp754
ag679
(g683
S'\x88\x00\x00\x00\x00\x00\x00\x00'
p755
tp756
Rp757
ag679
(g683
S'v\x00\x00\x00\x00\x00\x00\x00'
p758
tp759
Rp760
ag679
(g683
S'z\x00\x00\x00\x00\x00\x00\x00'
p761
tp762
Rp763
ag679
(g683
S'O\x00\x00\x00\x00\x00\x00\x00'
p764
tp765
Rp766
ag679
(g683
S'j\x00\x00\x00\x00\x00\x00\x00'
p767
tp768
Rp769
ag679
(g683
S'\x87\x00\x00\x00\x00\x00\x00\x00'
p770
tp771
Rp772
ag679
(g683
S'S\x00\x00\x00\x00\x00\x00\x00'
p773
tp774
Rp775
ag679
(g683
S'\x89\x00\x00\x00\x00\x00\x00\x00'
p776
tp777
Rp778
ag679
(g683
S'X\x00\x00\x00\x00\x00\x00\x00'
p779
tp780
Rp781
ag679
(g683
S'\x87\x00\x00\x00\x00\x00\x00\x00'
p782
tp783
Rp784
ag679
(g683
S'S\x00\x00\x00\x00\x00\x00\x00'
p785
tp786
Rp787
ag679
(g683
S':\x00\x00\x00\x00\x00\x00\x00'
p788
tp789
Rp790
ag679
(g683
S'\x90\x00\x00\x00\x00\x00\x00\x00'
p791
tp792
Rp793
ag679
(g683
S'p\x00\x00\x00\x00\x00\x00\x00'
p794
tp795
Rp796
ag679
(g683
S'\x83\x00\x00\x00\x00\x00\x00\x00'
p797
tp798
Rp799
ag679
(g683
S'f\x00\x00\x00\x00\x00\x00\x00'
p800
tp801
Rp802
ag679
(g683
S'W\x00\x00\x00\x00\x00\x00\x00'
p803
tp804
Rp805
ag679
(g683
S'\x83\x00\x00\x00\x00\x00\x00\x00'
p806
tp807
Rp808
ag679
(g683
S'P\x00\x00\x00\x00\x00\x00\x00'
p809
tp810
Rp811
ag679
(g683
S'\x96\x00\x00\x00\x00\x00\x00\x00'
p812
tp813
Rp814
ag679
(g683
S'\x84\x00\x00\x00\x00\x00\x00\x00'
p815
tp816
Rp817
ag679
(g683
S'\x84\x00\x00\x00\x00\x00\x00\x00'
p818
tp819
Rp820
ag679
(g683
S'\x81\x00\x00\x00\x00\x00\x00\x00'
p821
tp822
Rp823
ag679
(g683
S'E\x00\x00\x00\x00\x00\x00\x00'
p824
tp825
Rp826
ag679
(g683
S'f\x00\x00\x00\x00\x00\x00\x00'
p827
tp828
Rp829
ag679
(g683
S'\xa8\x00\x00\x00\x00\x00\x00\x00'
p830
tp831
Rp832
ag679
(g683
S'4\x00\x00\x00\x00\x00\x00\x00'
p833
tp834
Rp835
ag679
(g683
S'E\x00\x00\x00\x00\x00\x00\x00'
p836
tp837
Rp838
ag679
(g683
S'9\x00\x00\x00\x00\x00\x00\x00'
p839
tp840
Rp841
ag679
(g683
S'{\x00\x00\x00\x00\x00\x00\x00'
p842
tp843
Rp844
ag679
(g683
S'\x8a\x00\x00\x00\x00\x00\x00\x00'
p845
tp846
Rp847
ag679
(g683
S'4\x00\x00\x00\x00\x00\x00\x00'
p848
tp849
Rp850
ag679
(g683
S'4\x00\x00\x00\x00\x00\x00\x00'
p851
tp852
Rp853
ag679
(g683
S'\x8d\x00\x00\x00\x00\x00\x00\x00'
p854
tp855
Rp856
ag679
(g683
S'N\x00\x00\x00\x00\x00\x00\x00'
p857
tp858
Rp859
ag679
(g683
S'\xff\x00\x00\x00\x00\x00\x00\x00'
p860
tp861
Rp862
ag679
(g683
S't\x00\x00\x00\x00\x00\x00\x00'
p863
tp864
Rp865
ag679
(g683
S'o\x00\x00\x00\x00\x00\x00\x00'
p866
tp867
Rp868
ag679
(g683
S'b\x00\x00\x00\x00\x00\x00\x00'
p869
tp870
Rp871
ag679
(g683
S'\x18\x00\x00\x00\x00\x00\x00\x00'
p872
tp873
Rp874
ag679
(g683
S'P\x00\x00\x00\x00\x00\x00\x00'
p875
tp876
Rp877
ag679
(g683
S'\x93\x00\x00\x00\x00\x00\x00\x00'
p878
tp879
Rp880
ag679
(g683
S'\xa2\x00\x00\x00\x00\x00\x00\x00'
p881
tp882
Rp883
ag679
(g683
S'F\x00\x00\x00\x00\x00\x00\x00'
p884
tp885
Rp886
ag679
(g683
S'/\x00\x00\x00\x00\x00\x00\x00'
p887
tp888
Rp889
ag679
(g683
S'\x9a\x00\x00\x00\x00\x00\x00\x00'
p890
tp891
Rp892
ag679
(g683
S'f\x00\x00\x00\x00\x00\x00\x00'
p893
tp894
Rp895
ag679
(g683
S',\x00\x00\x00\x00\x00\x00\x00'
p896
tp897
Rp898
ag679
(g683
S'U\x00\x00\x00\x00\x00\x00\x00'
p899
tp900
Rp901
ag679
(g683
S'\x1e\x00\x00\x00\x00\x00\x00\x00'
p902
tp903
Rp904
ag679
(g683
S'L\x00\x00\x00\x00\x00\x00\x00'
p905
tp906
Rp907
ag679
(g683
S'o\x00\x00\x00\x00\x00\x00\x00'
p908
tp909
Rp910
ag679
(g683
S'f\x00\x00\x00\x00\x00\x00\x00'
p911
tp912
Rp913
ag679
(g683
S'\x92\x00\x00\x00\x00\x00\x00\x00'
p914
tp915
Rp916
ag679
(g683
S'?\x00\x00\x00\x00\x00\x00\x00'
p917
tp918
Rp919
ag679
(g683
S'W\x00\x00\x00\x00\x00\x00\x00'
p920
tp921
Rp922
ag679
(g683
S'y\x00\x00\x00\x00\x00\x00\x00'
p923
tp924
Rp925
ag679
(g683
S'F\x00\x00\x00\x00\x00\x00\x00'
p926
tp927
Rp928
ag679
(g683
S'N\x00\x00\x00\x00\x00\x00\x00'
p929
tp930
Rp931
ag679
(g683
S'\x1f\x00\x00\x00\x00\x00\x00\x00'
p932
tp933
Rp934
asS'avg_training1'
p935
(lp936
g679
(g683
S'\xd0\x00\x00\x00\x00\x00\x00\x00'
p937
tp938
Rp939
ag679
(g683
S'\x03\x01\x00\x00\x00\x00\x00\x00'
p940
tp941
Rp942
ag679
(g683
S'\xe6\x00\x00\x00\x00\x00\x00\x00'
p943
tp944
Rp945
ag679
(g683
S'7\x01\x00\x00\x00\x00\x00\x00'
p946
tp947
Rp948
ag679
(g683
S'\x89\x01\x00\x00\x00\x00\x00\x00'
p949
tp950
Rp951
ag679
(g683
S'*\x01\x00\x00\x00\x00\x00\x00'
p952
tp953
Rp954
ag679
(g683
S'\xf7\x00\x00\x00\x00\x00\x00\x00'
p955
tp956
Rp957
ag679
(g683
S'\x94\x00\x00\x00\x00\x00\x00\x00'
p958
tp959
Rp960
ag679
(g683
S'\xe0\x00\x00\x00\x00\x00\x00\x00'
p961
tp962
Rp963
ag679
(g683
S'>\x01\x00\x00\x00\x00\x00\x00'
p964
tp965
Rp966
ag679
(g683
S'\xce\x00\x00\x00\x00\x00\x00\x00'
p967
tp968
Rp969
ag679
(g683
S'\xd0\x00\x00\x00\x00\x00\x00\x00'
p970
tp971
Rp972
ag679
(g683
S'\xe2\x00\x00\x00\x00\x00\x00\x00'
p973
tp974
Rp975
ag679
(g683
S'\xe8\x00\x00\x00\x00\x00\x00\x00'
p976
tp977
Rp978
ag679
(g683
S']\x01\x00\x00\x00\x00\x00\x00'
p979
tp980
Rp981
ag679
(g683
S'\xf3\x00\x00\x00\x00\x00\x00\x00'
p982
tp983
Rp984
ag679
(g683
S'\xd5\x00\x00\x00\x00\x00\x00\x00'
p985
tp986
Rp987
ag679
(g683
S'[\x01\x00\x00\x00\x00\x00\x00'
p988
tp989
Rp990
ag679
(g683
S'@\x01\x00\x00\x00\x00\x00\x00'
p991
tp992
Rp993
ag679
(g683
S'O\x01\x00\x00\x00\x00\x00\x00'
p994
tp995
Rp996
ag679
(g683
S'\x91\x00\x00\x00\x00\x00\x00\x00'
p997
tp998
Rp999
ag679
(g683
S'\x80\x01\x00\x00\x00\x00\x00\x00'
p1000
tp1001
Rp1002
ag679
(g683
S'\x88\x02\x00\x00\x00\x00\x00\x00'
p1003
tp1004
Rp1005
ag679
(g683
S' \x01\x00\x00\x00\x00\x00\x00'
p1006
tp1007
Rp1008
ag679
(g683
S'r\x00\x00\x00\x00\x00\x00\x00'
p1009
tp1010
Rp1011
ag679
(g683
S'\x00\x01\x00\x00\x00\x00\x00\x00'
p1012
tp1013
Rp1014
ag679
(g683
S'\xc4\x00\x00\x00\x00\x00\x00\x00'
p1015
tp1016
Rp1017
ag679
(g683
S'\x96\x00\x00\x00\x00\x00\x00\x00'
p1018
tp1019
Rp1020
ag679
(g683
S'\x9f\x00\x00\x00\x00\x00\x00\x00'
p1021
tp1022
Rp1023
ag679
(g683
S'\x1e\x01\x00\x00\x00\x00\x00\x00'
p1024
tp1025
Rp1026
ag679
(g683
S'9\x01\x00\x00\x00\x00\x00\x00'
p1027
tp1028
Rp1029
ag679
(g683
S'\xe6\x00\x00\x00\x00\x00\x00\x00'
p1030
tp1031
Rp1032
ag679
(g683
S'\x13\x01\x00\x00\x00\x00\x00\x00'
p1033
tp1034
Rp1035
ag679
(g683
S'\xa5\x00\x00\x00\x00\x00\x00\x00'
p1036
tp1037
Rp1038
ag679
(g683
S'\xd0\x00\x00\x00\x00\x00\x00\x00'
p1039
tp1040
Rp1041
ag679
(g683
S'\xab\x01\x00\x00\x00\x00\x00\x00'
p1042
tp1043
Rp1044
ag679
(g683
S'\xd7\x00\x00\x00\x00\x00\x00\x00'
p1045
tp1046
Rp1047
ag679
(g683
S'\x03\x01\x00\x00\x00\x00\x00\x00'
p1048
tp1049
Rp1050
ag679
(g683
S'\xe8\x00\x00\x00\x00\x00\x00\x00'
p1051
tp1052
Rp1053
ag679
(g683
S'\xba\x00\x00\x00\x00\x00\x00\x00'
p1054
tp1055
Rp1056
ag679
(g683
S'\x9f\x00\x00\x00\x00\x00\x00\x00'
p1057
tp1058
Rp1059
ag679
(g683
S'T\x00\x00\x00\x00\x00\x00\x00'
p1060
tp1061
Rp1062
ag679
(g683
S'\xff\x00\x00\x00\x00\x00\x00\x00'
p1063
tp1064
Rp1065
ag679
(g683
S',\x01\x00\x00\x00\x00\x00\x00'
p1066
tp1067
Rp1068
ag679
(g683
S'\xbd\x00\x00\x00\x00\x00\x00\x00'
p1069
tp1070
Rp1071
ag679
(g683
S'\x9f\x00\x00\x00\x00\x00\x00\x00'
p1072
tp1073
Rp1074
ag679
(g683
S'y\x01\x00\x00\x00\x00\x00\x00'
p1075
tp1076
Rp1077
ag679
(g683
S'z\x00\x00\x00\x00\x00\x00\x00'
p1078
tp1079
Rp1080
ag679
(g683
S'5\x01\x00\x00\x00\x00\x00\x00'
p1081
tp1082
Rp1083
ag679
(g683
S'\t\x01\x00\x00\x00\x00\x00\x00'
p1084
tp1085
Rp1086
ag679
(g683
S'\xea\x00\x00\x00\x00\x00\x00\x00'
p1087
tp1088
Rp1089
ag679
(g683
S'\xed\x00\x00\x00\x00\x00\x00\x00'
p1090
tp1091
Rp1092
ag679
(g683
S'\xd3\x00\x00\x00\x00\x00\x00\x00'
p1093
tp1094
Rp1095
ag679
(g683
S'x\x01\x00\x00\x00\x00\x00\x00'
p1096
tp1097
Rp1098
ag679
(g683
S'$\x01\x00\x00\x00\x00\x00\x00'
p1099
tp1100
Rp1101
ag679
(g683
S'8\x01\x00\x00\x00\x00\x00\x00'
p1102
tp1103
Rp1104
ag679
(g683
S'\xd0\x00\x00\x00\x00\x00\x00\x00'
p1105
tp1106
Rp1107
ag679
(g683
S'8\x01\x00\x00\x00\x00\x00\x00'
p1108
tp1109
Rp1110
ag679
(g683
S'\xe5\x01\x00\x00\x00\x00\x00\x00'
p1111
tp1112
Rp1113
ag679
(g683
S' \x01\x00\x00\x00\x00\x00\x00'
p1114
tp1115
Rp1116
ag679
(g683
S'h\x01\x00\x00\x00\x00\x00\x00'
p1117
tp1118
Rp1119
ag679
(g683
S'\x86\x01\x00\x00\x00\x00\x00\x00'
p1120
tp1121
Rp1122
ag679
(g683
S'\x89\x00\x00\x00\x00\x00\x00\x00'
p1123
tp1124
Rp1125
ag679
(g683
S'\x16\x01\x00\x00\x00\x00\x00\x00'
p1126
tp1127
Rp1128
ag679
(g683
S'\xcc\x00\x00\x00\x00\x00\x00\x00'
p1129
tp1130
Rp1131
ag679
(g683
S'L\x01\x00\x00\x00\x00\x00\x00'
p1132
tp1133
Rp1134
ag679
(g683
S'\x98\x00\x00\x00\x00\x00\x00\x00'
p1135
tp1136
Rp1137
ag679
(g683
S'X\x01\x00\x00\x00\x00\x00\x00'
p1138
tp1139
Rp1140
ag679
(g683
S'\xdd\x00\x00\x00\x00\x00\x00\x00'
p1141
tp1142
Rp1143
ag679
(g683
S'\x99\x01\x00\x00\x00\x00\x00\x00'
p1144
tp1145
Rp1146
ag679
(g683
S'f\x00\x00\x00\x00\x00\x00\x00'
p1147
tp1148
Rp1149
ag679
(g683
S't\x00\x00\x00\x00\x00\x00\x00'
p1150
tp1151
Rp1152
ag679
(g683
S'\xa0\x00\x00\x00\x00\x00\x00\x00'
p1153
tp1154
Rp1155
ag679
(g683
S'y\x00\x00\x00\x00\x00\x00\x00'
p1156
tp1157
Rp1158
ag679
(g683
S'`\x01\x00\x00\x00\x00\x00\x00'
p1159
tp1160
Rp1161
ag679
(g683
S'r\x01\x00\x00\x00\x00\x00\x00'
p1162
tp1163
Rp1164
ag679
(g683
S'\xa1\x01\x00\x00\x00\x00\x00\x00'
p1165
tp1166
Rp1167
ag679
(g683
S'}\x00\x00\x00\x00\x00\x00\x00'
p1168
tp1169
Rp1170
ag679
(g683
S'Y\x01\x00\x00\x00\x00\x00\x00'
p1171
tp1172
Rp1173
ag679
(g683
S'&\x01\x00\x00\x00\x00\x00\x00'
p1174
tp1175
Rp1176
ag679
(g683
S'\x9d\x00\x00\x00\x00\x00\x00\x00'
p1177
tp1178
Rp1179
ag679
(g683
S'}\x00\x00\x00\x00\x00\x00\x00'
p1180
tp1181
Rp1182
ag679
(g683
S'\x1e\x01\x00\x00\x00\x00\x00\x00'
p1183
tp1184
Rp1185
asS'module_reuse'
p1186
(lp1187
I3
aI0
aI1
aI1
aI2
aI0
aI2
aI0
aI0
aI0
aI2
aI1
aI0
aI0
aI1
aI1
aI2
aI1
aI1
aI0
aI1
aI1
aI2
aI2
aI2
aI1
aI1
aI1
aI1
aI1
aI2
aI0
aI3
aI1
aI0
aI1
aI1
aI2
aI1
aI1
aI2
aI0
aI3
aI1
aI1
aI2
aI0
aI1
aI3
aI0
aI1
aI0
aI2
aI1
aI0
aI0
aI1
aI1
aI3
aI1
aI1
aI1
aI0
aI0
aI2
aI2
aI2
aI0
aI2
aI1
aI0
aI1
aI0
aI3
aI1
aI1
aI2
aI2
aI0
aI1
aI2
aI2
aI0
as.